target datalayout = "e-m:e-p270:32:32-p271:32:32-p272:64:64-i64:64-i128:128-f80:128-n8:16:32:64-S128"
target triple = "x86_64-pc-linux-gnu"

; Function Attrs: nounwind uwtable
define internal ptr @get_decoder_store(ptr noundef %0) #0 {
  %2 = alloca ptr, align 8
  store ptr %0, ptr %2, align 8, !tbaa !29
  %3 = load ptr, ptr %2, align 8, !tbaa !29
  %4 = call ptr @ossl_lib_ctx_get_data(ptr noundef %3, i32 noundef 11)
  ret ptr %4
}

; Function Attrs: nounwind uwtable
define i32 @ossl_decoder_store_remove_all_provided(ptr noundef %0) #0 {
  %2 = alloca i32, align 4
  %3 = alloca ptr, align 8
  %4 = alloca ptr, align 8
  %5 = alloca ptr, align 8
  %6 = alloca i32, align 4
  store ptr %0, ptr %3, align 8, !tbaa !24
  call void @llvm.lifetime.start.p0(i64 8, ptr %4) #7
  %7 = load ptr, ptr %3, align 8, !tbaa !24
  %8 = call ptr @ossl_provider_libctx(ptr noundef %7)
  store ptr %8, ptr %4, align 8, !tbaa !29
  call void @llvm.lifetime.start.p0(i64 8, ptr %5) #7
  %9 = load ptr, ptr %4, align 8, !tbaa !29
  %10 = call ptr @get_decoder_store(ptr noundef %9)
  store ptr %10, ptr %5, align 8, !tbaa !55
  %11 = load ptr, ptr %5, align 8, !tbaa !55
  %12 = icmp ne ptr %11, null
  br i1 %12, label %13, label %17

13:                                               ; preds = %1
  %14 = load ptr, ptr %5, align 8, !tbaa !55
  %15 = load ptr, ptr %3, align 8, !tbaa !24
  %16 = call i32 @ossl_method_store_remove_all_provided(ptr noundef %14, ptr noundef %15)
  store i32 %16, ptr %2, align 4
  store i32 1, ptr %6, align 4
  br label %18

17:                                               ; preds = %1
  store i32 1, ptr %2, align 4
  store i32 1, ptr %6, align 4
  br label %18

18:                                               ; preds = %17, %13
  call void @llvm.lifetime.end.p0(i64 8, ptr %5) #7
  call void @llvm.lifetime.end.p0(i64 8, ptr %4) #7
  %19 = load i32, ptr %2, align 4
  ret i32 %19
}